target datalayout = "e-m:e-p270:32:32-p271:32:32-p272:64:64-i64:64-i128:128-f80:128-n8:16:32:64-S128"
target triple = "x86_64-pc-linux-gnu"

%struct.DdManager = type { %struct.DdNode, ptr, ptr, ptr, ptr, ptr, ptr, ptr, i32, i32, double, double, double, i32, i32, i32, i32, i32, i32, ptr, ptr, %struct.DdSubtable, i32, i32, i32, i32, i32, i32, i32, double, i32, i32, i32, ptr, i64, double, i32, ptr, ptr, ptr, ptr, ptr, ptr, ptr, i32, ptr, ptr, ptr, ptr, ptr, ptr, i32, i32, i32, double, i32, i32, i32, i32, double, double, i32, i32, i32, i32, i32, i32, i32, i32, i32, ptr, ptr, i32, i32, i32, i32, i32, i32, ptr, ptr, ptr, ptr, ptr, ptr, ptr, ptr, i32, i64, i64, i64, i32, i64, i64, double, double, double, double, double, double, i32, ptr, ptr, i64 }
%struct.DdNode = type { i32, i32, ptr, %union.anon, i64 }
%union.anon = type { %struct.DdChildren }
%struct.DdChildren = type { ptr, ptr }
%struct.DdSubtable = type { ptr, i32, i32, i32, i32, i32, i32, i32, i32, i32, i32, i32 }
%struct.traventry = type { i32, ptr }

@s_CutLevel = internal global i32 0, align 4

; Function Attrs: nounwind uwtable
define internal void @CollectNodesAndComputePaths_rec(ptr noundef %0, ptr noundef %1, ptr noundef %2, ptr noundef %3, ptr noundef %4) #0 {
  %6 = alloca ptr, align 8
  %7 = alloca ptr, align 8
  %8 = alloca ptr, align 8
  %9 = alloca ptr, align 8
  %10 = alloca ptr, align 8
  %11 = alloca ptr, align 8
  %12 = alloca ptr, align 8
  %13 = alloca ptr, align 8
  %14 = alloca i32, align 4
  %15 = alloca ptr, align 8
  %16 = alloca ptr, align 8
  %17 = alloca ptr, align 8
  store ptr %0, ptr %6, align 8, !tbaa !3
  store ptr %1, ptr %7, align 8, !tbaa !28
  store ptr %2, ptr %8, align 8, !tbaa !28
  store ptr %3, ptr %9, align 8, !tbaa !41
  store ptr %4, ptr %10, align 8, !tbaa !41
  call void @llvm.lifetime.start.p0(i64 8, ptr %11) #6
  call void @llvm.lifetime.start.p0(i64 8, ptr %12) #6
  call void @llvm.lifetime.start.p0(i64 8, ptr %13) #6
  %18 = load ptr, ptr %9, align 8, !tbaa !41
  %19 = load ptr, ptr %7, align 8, !tbaa !28
  %20 = call i32 @st__find_or_add(ptr noundef %18, ptr noundef %19, ptr noundef %13)
  %21 = icmp ne i32 %20, 0
  br i1 %21, label %22, label %131

22:                                               ; preds = %5
  %23 = load ptr, ptr %13, align 8, !tbaa !52
  %24 = load ptr, ptr %23, align 8, !tbaa !54
  store ptr %24, ptr %12, align 8, !tbaa !47
  %25 = load ptr, ptr %6, align 8, !tbaa !3
  %26 = load ptr, ptr %12, align 8, !tbaa !47
  %27 = getelementptr inbounds nuw %struct.traventry, ptr %26, i32 0, i32 1
  %28 = load ptr, ptr %27, align 8, !tbaa !48
  store ptr %28, ptr %11, align 8, !tbaa !28
  %29 = load ptr, ptr %8, align 8, !tbaa !28
  %30 = call ptr @Cudd_bddOr(ptr noundef %25, ptr noundef %28, ptr noundef %29)
  %31 = load ptr, ptr %12, align 8, !tbaa !47
  %32 = getelementptr inbounds nuw %struct.traventry, ptr %31, i32 0, i32 1
  store ptr %30, ptr %32, align 8, !tbaa !48
  %33 = load ptr, ptr %12, align 8, !tbaa !47
  %34 = getelementptr inbounds nuw %struct.traventry, ptr %33, i32 0, i32 1
  %35 = load ptr, ptr %34, align 8, !tbaa !48
  call void @Cudd_Ref(ptr noundef %35)
  %36 = load ptr, ptr %6, align 8, !tbaa !3
  %37 = load ptr, ptr %11, align 8, !tbaa !28
  call void @Cudd_RecursiveDeref(ptr noundef %36, ptr noundef %37)
  %38 = load ptr, ptr %12, align 8, !tbaa !47
  %39 = getelementptr inbounds nuw %struct.traventry, ptr %38, i32 0, i32 0
  %40 = load i32, ptr %39, align 8, !tbaa !55
  %41 = add nsw i32 %40, -1
  store i32 %41, ptr %39, align 8, !tbaa !55
  %42 = load ptr, ptr %12, align 8, !tbaa !47
  %43 = getelementptr inbounds nuw %struct.traventry, ptr %42, i32 0, i32 0
  %44 = load i32, ptr %43, align 8, !tbaa !55
  %45 = icmp ne i32 %44, 0
  br i1 %45, label %46, label %47

46:                                               ; preds = %22
  store i32 1, ptr %14, align 4
  br label %132

47:                                               ; preds = %22
  %48 = load ptr, ptr %7, align 8, !tbaa !28
  %49 = getelementptr inbounds nuw %struct.DdNode, ptr %48, i32 0, i32 0
  %50 = load i32, ptr %49, align 8, !tbaa !33
  %51 = icmp eq i32 %50, 2147483647
  br i1 %51, label %52, label %56

52:                                               ; preds = %47
  %53 = load ptr, ptr %7, align 8, !tbaa !28
  %54 = getelementptr inbounds nuw %struct.DdNode, ptr %53, i32 0, i32 0
  %55 = load i32, ptr %54, align 8, !tbaa !33
  br label %66

56:                                               ; preds = %47
  %57 = load ptr, ptr %6, align 8, !tbaa !3
  %58 = getelementptr inbounds nuw %struct.DdManager, ptr %57, i32 0, i32 37
  %59 = load ptr, ptr %58, align 8, !tbaa !56
  %60 = load ptr, ptr %7, align 8, !tbaa !28
  %61 = getelementptr inbounds nuw %struct.DdNode, ptr %60, i32 0, i32 0
  %62 = load i32, ptr %61, align 8, !tbaa !33
  %63 = zext i32 %62 to i64
  %64 = getelementptr inbounds nuw i32, ptr %59, i64 %63
  %65 = load i32, ptr %64, align 4, !tbaa !10
  br label %66

66:                                               ; preds = %56, %52
  %67 = phi i32 [ %55, %52 ], [ %65, %56 ]
  %68 = load i32, ptr @s_CutLevel, align 4, !tbaa !10
  %69 = icmp slt i32 %67, %68
  br i1 %69, label %70, label %117

70:                                               ; preds = %66
  call void @llvm.lifetime.start.p0(i64 8, ptr %15) #6
  call void @llvm.lifetime.start.p0(i64 8, ptr %16) #6
  call void @llvm.lifetime.start.p0(i64 8, ptr %17) #6
  %71 = load ptr, ptr %6, align 8, !tbaa !3
  %72 = getelementptr inbounds nuw %struct.DdManager, ptr %71, i32 0, i32 41
  %73 = load ptr, ptr %72, align 8, !tbaa !35
  %74 = load ptr, ptr %7, align 8, !tbaa !28
  %75 = getelementptr inbounds nuw %struct.DdNode, ptr %74, i32 0, i32 0
  %76 = load i32, ptr %75, align 8, !tbaa !33
  %77 = zext i32 %76 to i64
  %78 = getelementptr inbounds nuw ptr, ptr %73, i64 %77
  %79 = load ptr, ptr %78, align 8, !tbaa !28
  store ptr %79, ptr %17, align 8, !tbaa !28
  %80 = load ptr, ptr %6, align 8, !tbaa !3
  %81 = load ptr, ptr %12, align 8, !tbaa !47
  %82 = getelementptr inbounds nuw %struct.traventry, ptr %81, i32 0, i32 1
  %83 = load ptr, ptr %82, align 8, !tbaa !48
  %84 = load ptr, ptr %17, align 8, !tbaa !28
  %85 = ptrtoint ptr %84 to i64
  %86 = xor i64 %85, 1
  %87 = inttoptr i64 %86 to ptr
  %88 = call ptr @Cudd_bddAnd(ptr noundef %80, ptr noundef %83, ptr noundef %87)
  store ptr %88, ptr %15, align 8, !tbaa !28
  %89 = load ptr, ptr %15, align 8, !tbaa !28
  call void @Cudd_Ref(ptr noundef %89)
  %90 = load ptr, ptr %6, align 8, !tbaa !3
  %91 = load ptr, ptr %12, align 8, !tbaa !47
  %92 = getelementptr inbounds nuw %struct.traventry, ptr %91, i32 0, i32 1
  %93 = load ptr, ptr %92, align 8, !tbaa !48
  %94 = load ptr, ptr %17, align 8, !tbaa !28
  %95 = call ptr @Cudd_bddAnd(ptr noundef %90, ptr noundef %93, ptr noundef %94)
  store ptr %95, ptr %16, align 8, !tbaa !28
  %96 = load ptr, ptr %16, align 8, !tbaa !28
  call void @Cudd_Ref(ptr noundef %96)
  %97 = load ptr, ptr %6, align 8, !tbaa !3
  %98 = load ptr, ptr %7, align 8, !tbaa !28
  %99 = getelementptr inbounds nuw %struct.DdNode, ptr %98, i32 0, i32 3
  %100 = getelementptr inbounds nuw %struct.DdChildren, ptr %99, i32 0, i32 1
  %101 = load ptr, ptr %100, align 8, !tbaa !39
  %102 = load ptr, ptr %15, align 8, !tbaa !28
  %103 = load ptr, ptr %9, align 8, !tbaa !41
  %104 = load ptr, ptr %10, align 8, !tbaa !41
  call void @CollectNodesAndComputePaths_rec(ptr noundef %97, ptr noundef %101, ptr noundef %102, ptr noundef %103, ptr noundef %104)
  %105 = load ptr, ptr %6, align 8, !tbaa !3
  %106 = load ptr, ptr %7, align 8, !tbaa !28
  %107 = getelementptr inbounds nuw %struct.DdNode, ptr %106, i32 0, i32 3
  %108 = getelementptr inbounds nuw %struct.DdChildren, ptr %107, i32 0, i32 0
  %109 = load ptr, ptr %108, align 8, !tbaa !39
  %110 = load ptr, ptr %16, align 8, !tbaa !28
  %111 = load ptr, ptr %9, align 8, !tbaa !41
  %112 = load ptr, ptr %10, align 8, !tbaa !41
  call void @CollectNodesAndComputePaths_rec(ptr noundef %105, ptr noundef %109, ptr noundef %110, ptr noundef %111, ptr noundef %112)
  %113 = load ptr, ptr %6, align 8, !tbaa !3
  %114 = load ptr, ptr %15, align 8, !tbaa !28
  call void @Cudd_RecursiveDeref(ptr noundef %113, ptr noundef %114)
  %115 = load ptr, ptr %6, align 8, !tbaa !3
  %116 = load ptr, ptr %16, align 8, !tbaa !28
  call void @Cudd_RecursiveDeref(ptr noundef %115, ptr noundef %116)
  store i32 1, ptr %14, align 4
  call void @llvm.lifetime.end.p0(i64 8, ptr %17) #6
  call void @llvm.lifetime.end.p0(i64 8, ptr %16) #6
  call void @llvm.lifetime.end.p0(i64 8, ptr %15) #6
  br label %132

117:                                              ; preds = %66
  %118 = load ptr, ptr %10, align 8, !tbaa !41
  %119 = load ptr, ptr %7, align 8, !tbaa !28
  %120 = call i32 @st__find_or_add(ptr noundef %118, ptr noundef %119, ptr noundef %13)
  %121 = icmp ne i32 %120, 0
  br i1 %121, label %122, label %123

122:                                              ; preds = %117
  br label %123

123:                                              ; preds = %122, %117
  %124 = load ptr, ptr %12, align 8, !tbaa !47
  %125 = getelementptr inbounds nuw %struct.traventry, ptr %124, i32 0, i32 1
  %126 = load ptr, ptr %125, align 8, !tbaa !48
  %127 = load ptr, ptr %13, align 8, !tbaa !52
  store ptr %126, ptr %127, align 8, !tbaa !54
  %128 = load ptr, ptr %12, align 8, !tbaa !47
  %129 = getelementptr inbounds nuw %struct.traventry, ptr %128, i32 0, i32 1
  %130 = load ptr, ptr %129, align 8, !tbaa !48
  call void @Cudd_Ref(ptr noundef %130)
  store i32 1, ptr %14, align 4
  br label %132

131:                                              ; preds = %5
  store i32 0, ptr %14, align 4
  br label %132

132:                                              ; preds = %131, %123, %70, %46
  call void @llvm.lifetime.end.p0(i64 8, ptr %13) #6
  call void @llvm.lifetime.end.p0(i64 8, ptr %12) #6
  call void @llvm.lifetime.end.p0(i64 8, ptr %11) #6
  %133 = load i32, ptr %14, align 4
  switch i32 %133, label %135 [
    i32 0, label %134
    i32 1, label %134
  ]

134:                                              ; preds = %132, %132
  ret void

135:                                              ; preds = %132
  unreachable
}