; Function Attrs: nounwind uwtable
define internal fastcc void @CollectNodesAndComputePaths_rec(ptr noundef %0, ptr noundef %1, ptr noundef %2, ptr noundef %3, ptr noundef %4) unnamed_addr #0 {
  %6 = alloca ptr, align 8
  call void @llvm.lifetime.start.p0(i64 8, ptr nonnull %6) #11
  %7 = call i32 @st__find_or_add(ptr noundef %3, ptr noundef %1, ptr noundef nonnull %6) #11
  %.not = icmp eq i32 %7, 0
  br i1 %.not, label %46, label %8

8:                                                ; preds = %5
  %9 = load ptr, ptr %6, align 8, !tbaa !43
  %10 = load ptr, ptr %9, align 8, !tbaa !45
  %11 = getelementptr inbounds nuw i8, ptr %10, i64 8
  %12 = load ptr, ptr %11, align 8, !tbaa !39
  %13 = call ptr @Cudd_bddOr(ptr noundef %0, ptr noundef %12, ptr noundef %2) #11
  store ptr %13, ptr %11, align 8, !tbaa !39
  call void @Cudd_Ref(ptr noundef %13) #11
  call void @Cudd_RecursiveDeref(ptr noundef %0, ptr noundef %12) #11
  %14 = load i32, ptr %10, align 8, !tbaa !46
  %15 = add nsw i32 %14, -1
  store i32 %15, ptr %10, align 8, !tbaa !46
  %.not43 = icmp eq i32 %15, 0
  br i1 %.not43, label %16, label %46

16:                                               ; preds = %8
  %17 = load i32, ptr %1, align 8, !tbaa !28
  %18 = icmp eq i32 %17, 2147483647
  br i1 %18, label %.thread, label %19

19:                                               ; preds = %16
  %20 = getelementptr inbounds nuw i8, ptr %0, i64 312
  %21 = load ptr, ptr %20, align 8, !tbaa !47
  %22 = zext i32 %17 to i64
  %23 = getelementptr inbounds nuw i32, ptr %21, i64 %22
  %24 = load i32, ptr %23, align 4, !tbaa !29
  %25 = load i32, ptr @s_CutLevel, align 4, !tbaa !29
  %26 = icmp slt i32 %24, %25
  br i1 %26, label %27, label %.thread

27:                                               ; preds = %19
  %28 = getelementptr inbounds nuw i8, ptr %0, i64 344
  %29 = load ptr, ptr %28, align 8, !tbaa !31
  %30 = getelementptr inbounds nuw ptr, ptr %29, i64 %22
  %31 = load ptr, ptr %30, align 8, !tbaa !24
  %32 = load ptr, ptr %11, align 8, !tbaa !39
  %33 = ptrtoint ptr %31 to i64
  %34 = xor i64 %33, 1
  %35 = inttoptr i64 %34 to ptr
  %36 = call ptr @Cudd_bddAnd(ptr noundef nonnull %0, ptr noundef %32, ptr noundef %35) #11
  call void @Cudd_Ref(ptr noundef %36) #11
  %37 = load ptr, ptr %11, align 8, !tbaa !39
  %38 = call ptr @Cudd_bddAnd(ptr noundef nonnull %0, ptr noundef %37, ptr noundef %31) #11
  call void @Cudd_Ref(ptr noundef %38) #11
  %39 = getelementptr inbounds nuw i8, ptr %1, i64 16
  %40 = getelementptr inbounds nuw i8, ptr %1, i64 24
  %41 = load ptr, ptr %40, align 8, !tbaa !34
  call fastcc void @CollectNodesAndComputePaths_rec(ptr noundef nonnull %0, ptr noundef %41, ptr noundef %36, ptr noundef %3, ptr noundef %4)
  %42 = load ptr, ptr %39, align 8, !tbaa !34
  call fastcc void @CollectNodesAndComputePaths_rec(ptr noundef nonnull %0, ptr noundef %42, ptr noundef %38, ptr noundef %3, ptr noundef %4)
  call void @Cudd_RecursiveDeref(ptr noundef nonnull %0, ptr noundef %36) #11
  call void @Cudd_RecursiveDeref(ptr noundef nonnull %0, ptr noundef %38) #11
  br label %46

.thread:                                          ; preds = %16, %19
  %43 = call i32 @st__find_or_add(ptr noundef %4, ptr noundef nonnull %1, ptr noundef nonnull %6) #11
  %44 = load ptr, ptr %11, align 8, !tbaa !39
  %45 = load ptr, ptr %6, align 8, !tbaa !43
  store ptr %44, ptr %45, align 8, !tbaa !45
  call void @Cudd_Ref(ptr noundef %44) #11
  br label %46

46:                                               ; preds = %5, %8, %.thread, %27
  call void @llvm.lifetime.end.p0(i64 8, ptr nonnull %6) #11
  ret void
}